	.file	"operation.c"
# GNU C17 (Debian 8.3.0-6) version 8.3.0 (x86_64-linux-gnu)
#	compiled by GNU C version 8.3.0, GMP version 6.1.2, MPFR version 4.0.2, MPC version 1.1.0, isl version isl-0.20-GMP

# GGC heuristics: --param ggc-min-expand=100 --param ggc-min-heapsize=131072
# options passed:  -fpreprocessed operation.i -mtune=generic -march=x86-64
# -g -O -Wshadow -Wpedantic -fomit-frame-pointer
# -fasynchronous-unwind-tables -fverbose-asm -finstrument-functions
# options enabled:  -fPIC -fPIE -faggressive-loop-optimizations
# -fasynchronous-unwind-tables -fauto-inc-dec -fbranch-count-reg
# -fchkp-check-incomplete-type -fchkp-check-read -fchkp-check-write
# -fchkp-instrument-calls -fchkp-narrow-bounds -fchkp-optimize
# -fchkp-store-bounds -fchkp-use-static-bounds
# -fchkp-use-static-const-bounds -fchkp-use-wrappers
# -fcombine-stack-adjustments -fcommon -fcompare-elim -fcprop-registers
# -fdefer-pop -fdelete-null-pointer-checks -fdwarf2-cfi-asm
# -fearly-inlining -feliminate-unused-debug-types -fforward-propagate
# -ffp-int-builtin-inexact -ffunction-cse -fgcse-lm -fgnu-runtime
# -fgnu-unique -fguess-branch-probability -fident -fif-conversion
# -fif-conversion2 -finline -finline-atomics -finline-functions-called-once
# -finstrument-functions -fipa-profile -fipa-pure-const -fipa-reference
# -fira-hoist-pressure -fira-share-save-slots -fira-share-spill-slots
# -fivopts -fkeep-static-consts -fleading-underscore -flifetime-dse
# -flto-odr-type-merging -fmath-errno -fmerge-constants
# -fmerge-debug-strings -fmove-loop-invariants -fomit-frame-pointer
# -fpeephole -fplt -fprefetch-loop-arrays -freg-struct-return
# -freorder-blocks -fsched-critical-path-heuristic
# -fsched-dep-count-heuristic -fsched-group-heuristic -fsched-interblock
# -fsched-last-insn-heuristic -fsched-rank-heuristic -fsched-spec
# -fsched-spec-insn-heuristic -fsched-stalled-insns-dep -fschedule-fusion
# -fsemantic-interposition -fshow-column -fshrink-wrap
# -fshrink-wrap-separate -fsigned-zeros -fsplit-ivs-in-unroller
# -fsplit-wide-types -fssa-backprop -fssa-phiopt -fstdarg-opt
# -fstrict-volatile-bitfields -fsync-libcalls -ftoplevel-reorder
# -ftrapping-math -ftree-bit-ccp -ftree-builtin-call-dce -ftree-ccp
# -ftree-ch -ftree-coalesce-vars -ftree-copy-prop -ftree-cselim -ftree-dce
# -ftree-dominator-opts -ftree-dse -ftree-forwprop -ftree-fre
# -ftree-loop-if-convert -ftree-loop-im -ftree-loop-ivcanon
# -ftree-loop-optimize -ftree-parallelize-loops= -ftree-phiprop -ftree-pta
# -ftree-reassoc -ftree-scev-cprop -ftree-sink -ftree-slsr -ftree-sra
# -ftree-ter -funit-at-a-time -funwind-tables -fvar-tracking
# -fvar-tracking-assignments -fverbose-asm -fzero-initialized-in-bss
# -m128bit-long-double -m64 -m80387 -malign-stringops
# -mavx256-split-unaligned-load -mavx256-split-unaligned-store
# -mfancy-math-387 -mfp-ret-in-387 -mfxsr -mglibc -mieee-fp
# -mlong-double-80 -mmmx -mno-sse4 -mpush-args -mred-zone -msse -msse2
# -mstv -mtls-direct-seg-refs -mvzeroupper

	.text
.Ltext0:
	.globl	calculer_temps_operation
	.type	calculer_temps_operation, @function
calculer_temps_operation:
.LVL0:
.LFB33:
	.file 1 "operation.c"
	.loc 1 170 60 view -0
	.cfi_startproc
	.loc 1 170 60 is_stmt 0 view .LVU1
	pushq	%rbp	#
	.cfi_def_cfa_offset 16
	.cfi_offset 6, -16
	pushq	%rbx	#
	.cfi_def_cfa_offset 24
	.cfi_offset 3, -24
	subq	$8, %rsp	#,
	.cfi_def_cfa_offset 32
	movq	%rdi, %rbp	# debut, debut
	movq	%rsi, %rbx	# fin, fin
	movq	24(%rsp), %rsi	#,
.LVL1:
	.loc 1 170 60 view .LVU2
	leaq	calculer_temps_operation(%rip), %rdi	#,
.LVL2:
	.loc 1 170 60 view .LVU3
	call	__cyg_profile_func_enter@PLT	#
.LVL3:
	.loc 1 172 2 is_stmt 1 view .LVU4
# operation.c:172: 	if(fin < debut){
	.loc 1 172 4 is_stmt 0 view .LVU5
	cmpq	%rbp, %rbx	# debut, fin
	jge	.L2	#,
	movq	%rbp, %rax	# debut, debut
.LBB2:
# operation.c:174: 		debut = fin;
	.loc 1 174 9 view .LVU6
	movq	%rbx, %rbp	# fin, debut
.LVL4:
# operation.c:175: 		fin = temp;
	.loc 1 175 7 view .LVU7
	movq	%rax, %rbx	# debut, fin
.LVL5:
.L2:
	.loc 1 175 7 view .LVU8
.LBE2:
	.loc 1 178 2 is_stmt 1 view .LVU9
	movq	24(%rsp), %rsi	#,
	leaq	calculer_temps_operation(%rip), %rdi	#,
	call	__cyg_profile_func_exit@PLT	#
.LVL6:
# operation.c:178: 	return (double)(fin - debut) / CLOCKS_PER_SEC;
	.loc 1 178 22 is_stmt 0 view .LVU10
	subq	%rbp, %rbx	# debut, tmp98
.LVL7:
# operation.c:178: 	return (double)(fin - debut) / CLOCKS_PER_SEC;
	.loc 1 178 9 view .LVU11
	pxor	%xmm0, %xmm0	# tmp99
	cvtsi2sdq	%rbx, %xmm0	# tmp98, tmp99
# operation.c:178: 	return (double)(fin - debut) / CLOCKS_PER_SEC;
	.loc 1 178 31 view .LVU12
	divsd	.LC0(%rip), %xmm0	#, tmp97
# operation.c:179: }
	.loc 1 179 1 view .LVU13
	addq	$8, %rsp	#,
	.cfi_def_cfa_offset 24
	popq	%rbx	#
	.cfi_def_cfa_offset 16
	popq	%rbp	#
	.cfi_def_cfa_offset 8
.LVL8:
	.loc 1 179 1 view .LVU14
	ret	
	.cfi_endproc
.LFE33:
	.size	calculer_temps_operation, .-calculer_temps_operation
	.globl	generate_random_value
	.type	generate_random_value, @function
generate_random_value:
.LFB27:
	.loc 1 103 28 is_stmt 1 view -0
	.cfi_startproc
	pushq	%rbx	#
	.cfi_def_cfa_offset 16
	.cfi_offset 3, -16
	movq	8(%rsp), %rsi	#,
	leaq	generate_random_value(%rip), %rdi	#,
	call	__cyg_profile_func_enter@PLT	#
.LVL9:
	.loc 1 104 2 view .LVU16
# operation.c:104: 	return rand()%(MAX_RANDOM - MIN_RANDOM) + MIN_RANDOM;
	.loc 1 104 9 is_stmt 0 view .LVU17
	call	rand@PLT	#
.LVL10:
	movl	%eax, %ebx	#, _1
	movq	8(%rsp), %rsi	#,
	leaq	generate_random_value(%rip), %rdi	#,
	call	__cyg_profile_func_exit@PLT	#
.LVL11:
# operation.c:104: 	return rand()%(MAX_RANDOM - MIN_RANDOM) + MIN_RANDOM;
	.loc 1 104 15 view .LVU18
	movl	$1717986919, %edx	#, tmp97
	movl	%ebx, %eax	# _1, tmp105
	imull	%edx	# tmp97
	sarl	$3, %edx	#, tmp98
	movl	%ebx, %eax	# _1, tmp99
	sarl	$31, %eax	#, tmp99
	subl	%eax, %edx	# tmp99, tmp95
	leal	(%rdx,%rdx,4), %eax	#, tmp102
	sall	$2, %eax	#, tmp103
	subl	%eax, %ebx	# tmp103, tmp104
# operation.c:104: 	return rand()%(MAX_RANDOM - MIN_RANDOM) + MIN_RANDOM;
	.loc 1 104 27 view .LVU19
	leal	-10(%rbx), %eax	#, tmp94
# operation.c:105: }
	.loc 1 105 1 view .LVU20
	popq	%rbx	#
	.cfi_def_cfa_offset 8
	ret	
	.cfi_endproc
.LFE27:
	.size	generate_random_value, .-generate_random_value
	.globl	chrono
	.type	chrono, @function
chrono:
.LFB32:
	.loc 1 161 17 is_stmt 1 view -0
	.cfi_startproc
	pushq	%rbx	#
	.cfi_def_cfa_offset 16
	.cfi_offset 3, -16
	movq	8(%rsp), %rsi	#,
	leaq	chrono(%rip), %rdi	#,
	call	__cyg_profile_func_enter@PLT	#
.LVL12:
	.loc 1 163 2 view .LVU22
# operation.c:163: 	return clock();
	.loc 1 163 9 is_stmt 0 view .LVU23
	call	clock@PLT	#
.LVL13:
	movq	%rax, %rbx	#, <retval>
	movq	8(%rsp), %rsi	#,
	leaq	chrono(%rip), %rdi	#,
	call	__cyg_profile_func_exit@PLT	#
.LVL14:
# operation.c:164: }
	.loc 1 164 1 view .LVU24
	movq	%rbx, %rax	# <retval>,
	popq	%rbx	#
	.cfi_def_cfa_offset 8
	ret	
	.cfi_endproc
.LFE32:
	.size	chrono, .-chrono
	.section	.rodata.str1.8,"aMS",@progbits,1
	.align 8
.LC1:
	.string	"\tVotre machine a %d Coeurs dont %d Threads\n"
	.text
	.globl	get_thread_count
	.type	get_thread_count, @function
get_thread_count:
.LFB34:
	.loc 1 185 23 is_stmt 1 view -0
	.cfi_startproc
	pushq	%rbx	#
	.cfi_def_cfa_offset 16
	.cfi_offset 3, -16
	movq	8(%rsp), %rsi	#,
	leaq	get_thread_count(%rip), %rdi	#,
	call	__cyg_profile_func_enter@PLT	#
.LVL15:
	.loc 1 186 2 view .LVU26
	.loc 1 187 2 view .LVU27
	movl	$11, %eax	#, tmp95
	movl	$1, %ecx	#, tmp96
#APP
# 187 "operation.c" 1
	cpuid	
# 0 "" 2
#NO_APP
	movl	%eax, %esi	# ncores, ncores
.LVL16:
	.loc 1 188 2 view .LVU28
	movl	%ebx, %edx	# nthreads,
	leaq	.LC1(%rip), %rdi	#,
	movl	$0, %eax	#,
.LVL17:
	.loc 1 188 2 is_stmt 0 view .LVU29
	call	printf@PLT	#
.LVL18:
	.loc 1 189 2 is_stmt 1 view .LVU30
	movq	8(%rsp), %rsi	#,
	leaq	get_thread_count(%rip), %rdi	#,
	call	__cyg_profile_func_exit@PLT	#
.LVL19:
# operation.c:191: }
	.loc 1 191 1 is_stmt 0 view .LVU31
	movl	%ebx, %eax	# nthreads,
	popq	%rbx	#
	.cfi_def_cfa_offset 8
.LVL20:
	.loc 1 191 1 view .LVU32
	ret	
	.cfi_endproc
.LFE34:
	.size	get_thread_count, .-get_thread_count
	.section	.rodata.str1.8
	.align 8
.LC2:
	.string	"\n\tSomme = %d\n\tMoyenne = %f\n\tTemps d'operation %lf\n"
	.text
	.globl	afficherResultat
	.type	afficherResultat, @function
afficherResultat:
.LVL21:
.LFB35:
	.loc 1 196 68 is_stmt 1 view -0
	.cfi_startproc
	.loc 1 196 68 is_stmt 0 view .LVU34
	pushq	%rbx	#
	.cfi_def_cfa_offset 16
	.cfi_offset 3, -16
	subq	$16, %rsp	#,
	.cfi_def_cfa_offset 32
	movl	%edi, %ebx	# somme, somme
	movss	%xmm0, 4(%rsp)	# moyenne, %sfp
	movsd	%xmm1, 8(%rsp)	# time_elapse, %sfp
	movq	24(%rsp), %rsi	#,
	leaq	afficherResultat(%rip), %rdi	#,
.LVL22:
	.loc 1 196 68 view .LVU35
	call	__cyg_profile_func_enter@PLT	#
.LVL23:
	.loc 1 197 2 is_stmt 1 view .LVU36
	pxor	%xmm0, %xmm0	# tmp94
	cvtss2sd	4(%rsp), %xmm0	# %sfp, tmp94
	movsd	8(%rsp), %xmm1	# %sfp,
	movl	%ebx, %esi	# somme,
	leaq	.LC2(%rip), %rdi	#,
	movl	$2, %eax	#,
	call	printf@PLT	#
.LVL24:
	movq	24(%rsp), %rsi	#,
	leaq	afficherResultat(%rip), %rdi	#,
	call	__cyg_profile_func_exit@PLT	#
.LVL25:
# operation.c:198: }
	.loc 1 198 1 is_stmt 0 view .LVU37
	addq	$16, %rsp	#,
	.cfi_def_cfa_offset 16
	popq	%rbx	#
	.cfi_def_cfa_offset 8
.LVL26:
	.loc 1 198 1 view .LVU38
	ret	
	.cfi_endproc
.LFE35:
	.size	afficherResultat, .-afficherResultat
	.globl	calculer_t3
	.type	calculer_t3, @function
calculer_t3:
.LVL27:
.LFB24:
	.loc 1 22 43 is_stmt 1 view -0
	.cfi_startproc
	.loc 1 22 43 is_stmt 0 view .LVU40
	pushq	%r14	#
	.cfi_def_cfa_offset 16
	.cfi_offset 14, -16
	pushq	%r13	#
	.cfi_def_cfa_offset 24
	.cfi_offset 13, -24
	pushq	%r12	#
	.cfi_def_cfa_offset 32
	.cfi_offset 12, -32
	pushq	%rbp	#
	.cfi_def_cfa_offset 40
	.cfi_offset 6, -40
	pushq	%rbx	#
	.cfi_def_cfa_offset 48
	.cfi_offset 3, -48
	movq	%rdi, %r13	# t1, t1
	movq	%rsi, %r12	# t2, t2
	movq	%rdx, %rbp	# t3, t3
	movq	40(%rsp), %rsi	#,
.LVL28:
	.loc 1 22 43 view .LVU41
	leaq	calculer_t3(%rip), %rdi	#,
.LVL29:
	.loc 1 22 43 view .LVU42
	call	__cyg_profile_func_enter@PLT	#
.LVL30:
	.loc 1 23 2 is_stmt 1 view .LVU43
# operation.c:23: 	clock_t debut = chrono();
	.loc 1 23 18 is_stmt 0 view .LVU44
	movl	$0, %eax	#,
	call	chrono	#
.LVL31:
	movq	%rax, %r14	#, debut
.LVL32:
	.loc 1 24 2 is_stmt 1 view .LVU45
	.loc 1 25 2 view .LVU46
	.loc 1 26 2 view .LVU47
	.loc 1 27 2 view .LVU48
	.loc 1 28 2 view .LVU49
# operation.c:23: 	clock_t debut = chrono();
	.loc 1 23 18 is_stmt 0 view .LVU50
	movl	$0, %eax	#, ivtmp.50
.LVL33:
# operation.c:24: 	int somme = 0, i =0;
	.loc 1 24 6 view .LVU51
	movl	$0, %ebx	#, somme
.LVL34:
.L13:
	.loc 1 29 3 is_stmt 1 discriminator 3 view .LVU52
# operation.c:29: 		t3[i]= t1[i] * t2[i];
	.loc 1 29 16 is_stmt 0 discriminator 3 view .LVU53
	movl	0(%r13,%rax), %edx	# MEM[base: t1_19(D), index: ivtmp.50_11, offset: 0B], MEM[base: t1_19(D), index: ivtmp.50_11, offset: 0B]
	imull	(%r12,%rax), %edx	# MEM[base: t2_20(D), index: ivtmp.50_11, offset: 0B], _8
# operation.c:29: 		t3[i]= t1[i] * t2[i];
	.loc 1 29 8 discriminator 3 view .LVU54
	movl	%edx, 0(%rbp,%rax)	# _8, MEM[base: t3_21(D), index: ivtmp.50_11, offset: 0B]
	.loc 1 30 3 is_stmt 1 discriminator 3 view .LVU55
# operation.c:30: 		somme += t3[i];
	.loc 1 30 9 is_stmt 0 discriminator 3 view .LVU56
	addl	%edx, %ebx	# _8, somme
.LVL35:
	.loc 1 30 9 discriminator 3 view .LVU57
	addq	$4, %rax	#, ivtmp.50
# operation.c:28: 	for(i = 0; i<TABLE_SIZE; i++){
	.loc 1 28 2 discriminator 3 view .LVU58
	cmpq	$4000000, %rax	#, ivtmp.50
	jne	.L13	#,
	.loc 1 32 2 is_stmt 1 view .LVU59
# operation.c:32: 	fin = chrono();
	.loc 1 32 8 is_stmt 0 view .LVU60
	movl	$0, %eax	#,
	call	chrono	#
.LVL36:
	.loc 1 33 2 is_stmt 1 view .LVU61
# operation.c:33: 	time_elapse = calculer_temps_operation(debut, fin);
	.loc 1 33 16 is_stmt 0 view .LVU62
	movq	%rax, %rsi	# fin,
	movq	%r14, %rdi	# debut,
	call	calculer_temps_operation	#
.LVL37:
	.loc 1 33 16 view .LVU63
	movapd	%xmm0, %xmm1	#, time_elapse
.LVL38:
	.loc 1 34 2 is_stmt 1 view .LVU64
	.loc 1 35 2 view .LVU65
# operation.c:34: 	moyenne =(float) somme / TABLE_SIZE;
	.loc 1 34 11 is_stmt 0 view .LVU66
	pxor	%xmm2, %xmm2	# tmp104
	cvtsi2ss	%ebx, %xmm2	# somme, tmp104
# operation.c:34: 	moyenne =(float) somme / TABLE_SIZE;
	.loc 1 34 10 view .LVU67
	divss	.LC3(%rip), %xmm2	#, tmp104
	movaps	%xmm2, %xmm0	# tmp104, moyenne
.LVL39:
# operation.c:35: 	afficherResultat(somme, moyenne, time_elapse);
	.loc 1 35 2 view .LVU68
	movl	%ebx, %edi	# somme,
	call	afficherResultat	#
.LVL40:
	.loc 1 35 2 view .LVU69
	movq	40(%rsp), %rsi	#,
	leaq	calculer_t3(%rip), %rdi	#,
	call	__cyg_profile_func_exit@PLT	#
.LVL41:
# operation.c:36: }
	.loc 1 36 1 view .LVU70
	popq	%rbx	#
	.cfi_def_cfa_offset 40
.LVL42:
	.loc 1 36 1 view .LVU71
	popq	%rbp	#
	.cfi_def_cfa_offset 32
.LVL43:
	.loc 1 36 1 view .LVU72
	popq	%r12	#
	.cfi_def_cfa_offset 24
.LVL44:
	.loc 1 36 1 view .LVU73
	popq	%r13	#
	.cfi_def_cfa_offset 16
.LVL45:
	.loc 1 36 1 view .LVU74
	popq	%r14	#
	.cfi_def_cfa_offset 8
.LVL46:
	.loc 1 36 1 view .LVU75
	ret	
	.cfi_endproc
.LFE24:
	.size	calculer_t3, .-calculer_t3
	.globl	calculer_t3_omp
	.type	calculer_t3_omp, @function
calculer_t3_omp:
.LVL47:
.LFB26:
	.loc 1 83 47 is_stmt 1 view -0
	.cfi_startproc
	.loc 1 83 47 is_stmt 0 view .LVU77
	pushq	%r14	#
	.cfi_def_cfa_offset 16
	.cfi_offset 14, -16
	pushq	%r13	#
	.cfi_def_cfa_offset 24
	.cfi_offset 13, -24
	pushq	%r12	#
	.cfi_def_cfa_offset 32
	.cfi_offset 12, -32
	pushq	%rbp	#
	.cfi_def_cfa_offset 40
	.cfi_offset 6, -40
	pushq	%rbx	#
	.cfi_def_cfa_offset 48
	.cfi_offset 3, -48
	movq	%rdi, %r13	# t1, t1
	movq	%rsi, %r12	# t2, t2
	movq	%rdx, %rbp	# t3, t3
	movq	40(%rsp), %rsi	#,
.LVL48:
	.loc 1 83 47 view .LVU78
	leaq	calculer_t3_omp(%rip), %rdi	#,
.LVL49:
	.loc 1 83 47 view .LVU79
	call	__cyg_profile_func_enter@PLT	#
.LVL50:
	.loc 1 84 2 is_stmt 1 view .LVU80
# operation.c:84: 	clock_t debut = chrono();
	.loc 1 84 18 is_stmt 0 view .LVU81
	movl	$0, %eax	#,
	call	chrono	#
.LVL51:
	movq	%rax, %r14	#, debut
.LVL52:
	.loc 1 85 2 is_stmt 1 view .LVU82
	.loc 1 86 2 view .LVU83
	.loc 1 87 2 view .LVU84
	.loc 1 88 2 view .LVU85
	.loc 1 90 2 view .LVU86
# operation.c:84: 	clock_t debut = chrono();
	.loc 1 84 18 is_stmt 0 view .LVU87
	movl	$0, %eax	#, ivtmp.61
.LVL53:
# operation.c:85: 	int somme = 0, i =0;
	.loc 1 85 6 view .LVU88
	movl	$0, %ebx	#, somme
.LVL54:
.L17:
	.loc 1 91 3 is_stmt 1 discriminator 3 view .LVU89
# operation.c:91: 		t3[i]= t1[i] * t2[i];
	.loc 1 91 16 is_stmt 0 discriminator 3 view .LVU90
	movl	0(%r13,%rax), %edx	# MEM[base: t1_19(D), index: ivtmp.61_11, offset: 0B], MEM[base: t1_19(D), index: ivtmp.61_11, offset: 0B]
	imull	(%r12,%rax), %edx	# MEM[base: t2_20(D), index: ivtmp.61_11, offset: 0B], _8
# operation.c:91: 		t3[i]= t1[i] * t2[i];
	.loc 1 91 8 discriminator 3 view .LVU91
	movl	%edx, 0(%rbp,%rax)	# _8, MEM[base: t3_21(D), index: ivtmp.61_11, offset: 0B]
	.loc 1 92 3 is_stmt 1 discriminator 3 view .LVU92
# operation.c:92: 		somme += t3[i];
	.loc 1 92 9 is_stmt 0 discriminator 3 view .LVU93
	addl	%edx, %ebx	# _8, somme
.LVL55:
	.loc 1 92 9 discriminator 3 view .LVU94
	addq	$4, %rax	#, ivtmp.61
# operation.c:90: 	for(i = 0; i<TABLE_SIZE; i++){
	.loc 1 90 2 discriminator 3 view .LVU95
	cmpq	$4000000, %rax	#, ivtmp.61
	jne	.L17	#,
	.loc 1 94 2 is_stmt 1 view .LVU96
.LVL56:
	.loc 1 95 2 view .LVU97
# operation.c:95: 	fin = chrono();
	.loc 1 95 8 is_stmt 0 view .LVU98
	movl	$0, %eax	#,
	call	chrono	#
.LVL57:
	.loc 1 96 2 is_stmt 1 view .LVU99
# operation.c:96: 	time_elapse = calculer_temps_operation(debut, fin);
	.loc 1 96 16 is_stmt 0 view .LVU100
	movq	%rax, %rsi	# fin,
	movq	%r14, %rdi	# debut,
	call	calculer_temps_operation	#
.LVL58:
	.loc 1 96 16 view .LVU101
	movapd	%xmm0, %xmm1	#, time_elapse
.LVL59:
	.loc 1 97 2 is_stmt 1 view .LVU102
# operation.c:94: 	moyenne =(float) somme / TABLE_SIZE;
	.loc 1 94 11 is_stmt 0 view .LVU103
	pxor	%xmm2, %xmm2	# tmp104
	cvtsi2ss	%ebx, %xmm2	# somme, tmp104
# operation.c:94: 	moyenne =(float) somme / TABLE_SIZE;
	.loc 1 94 10 view .LVU104
	divss	.LC3(%rip), %xmm2	#, tmp104
	movaps	%xmm2, %xmm0	# tmp104, moyenne
.LVL60:
# operation.c:97: 	afficherResultat(somme, moyenne, time_elapse);
	.loc 1 97 2 view .LVU105
	movl	%ebx, %edi	# somme,
	call	afficherResultat	#
.LVL61:
	.loc 1 97 2 view .LVU106
	movq	40(%rsp), %rsi	#,
	leaq	calculer_t3_omp(%rip), %rdi	#,
	call	__cyg_profile_func_exit@PLT	#
.LVL62:
# operation.c:98: }
	.loc 1 98 1 view .LVU107
	popq	%rbx	#
	.cfi_def_cfa_offset 40
.LVL63:
	.loc 1 98 1 view .LVU108
	popq	%rbp	#
	.cfi_def_cfa_offset 32
.LVL64:
	.loc 1 98 1 view .LVU109
	popq	%r12	#
	.cfi_def_cfa_offset 24
.LVL65:
	.loc 1 98 1 view .LVU110
	popq	%r13	#
	.cfi_def_cfa_offset 16
.LVL66:
	.loc 1 98 1 view .LVU111
	popq	%r14	#
	.cfi_def_cfa_offset 8
.LVL67:
	.loc 1 98 1 view .LVU112
	ret	
	.cfi_endproc
.LFE26:
	.size	calculer_t3_omp, .-calculer_t3_omp
	.globl	execute_task
	.type	execute_task, @function
execute_task:
.LVL68:
.LFB36:
	.loc 1 203 31 is_stmt 1 view -0
	.cfi_startproc
	.loc 1 203 31 is_stmt 0 view .LVU114
	pushq	%rbx	#
	.cfi_def_cfa_offset 16
	.cfi_offset 3, -16
	movq	%rdi, %rbx	# args, args
	movq	8(%rsp), %rsi	#,
	leaq	execute_task(%rip), %rdi	#,
.LVL69:
	.loc 1 203 31 view .LVU115
	call	__cyg_profile_func_enter@PLT	#
.LVL70:
	.loc 1 204 2 is_stmt 1 view .LVU116
	.loc 1 205 2 view .LVU117
	.loc 1 206 2 view .LVU118
# operation.c:206: 	for(i = ak->min; i<ak->max; i++){
	.loc 1 206 8 is_stmt 0 view .LVU119
	movl	(%rbx), %ecx	# MEM[(struct  *)args_24(D)].min, i
.LVL71:
# operation.c:206: 	for(i = ak->min; i<ak->max; i++){
	.loc 1 206 2 view .LVU120
	cmpl	4(%rbx), %ecx	# MEM[(struct  *)args_24(D)].max, i
	jge	.L21	#,
	movslq	%ecx, %rax	# i, i
	salq	$2, %rax	#, ivtmp.66
.L22:
	.loc 1 207 4 is_stmt 1 discriminator 3 view .LVU121
# operation.c:207: 			ak->t3[i]= ak->t1[i] * ak->t2[i];
	.loc 1 207 13 is_stmt 0 discriminator 3 view .LVU122
	movq	24(%rbx), %rsi	# MEM[(struct  *)args_24(D)].t3, MEM[(struct  *)args_24(D)].t3
# operation.c:207: 			ak->t3[i]= ak->t1[i] * ak->t2[i];
	.loc 1 207 21 discriminator 3 view .LVU123
	movq	8(%rbx), %rdx	# MEM[(struct  *)args_24(D)].t1, MEM[(struct  *)args_24(D)].t1
# operation.c:207: 			ak->t3[i]= ak->t1[i] * ak->t2[i];
	.loc 1 207 33 discriminator 3 view .LVU124
	movq	16(%rbx), %rdi	# MEM[(struct  *)args_24(D)].t2, MEM[(struct  *)args_24(D)].t2
# operation.c:207: 			ak->t3[i]= ak->t1[i] * ak->t2[i];
	.loc 1 207 25 discriminator 3 view .LVU125
	movl	(%rdx,%rax), %edx	# *_4, *_4
	imull	(%rdi,%rax), %edx	# *_7, tmp114
# operation.c:207: 			ak->t3[i]= ak->t1[i] * ak->t2[i];
	.loc 1 207 13 discriminator 3 view .LVU126
	movl	%edx, (%rsi,%rax)	# tmp114, *_10
	.loc 1 208 4 is_stmt 1 discriminator 3 view .LVU127
# operation.c:208: 			ak->somme += ak->t3[i];
	.loc 1 208 23 is_stmt 0 discriminator 3 view .LVU128
	movq	24(%rbx), %rdx	# MEM[(struct  *)args_24(D)].t3, MEM[(struct  *)args_24(D)].t3
# operation.c:208: 			ak->somme += ak->t3[i];
	.loc 1 208 14 discriminator 3 view .LVU129
	movl	(%rdx,%rax), %edx	# *_14, *_14
	addl	%edx, 32(%rbx)	# *_14, MEM[(struct  *)args_24(D)].somme
# operation.c:206: 	for(i = ak->min; i<ak->max; i++){
	.loc 1 206 31 discriminator 3 view .LVU130
	addl	$1, %ecx	#, i
.LVL72:
	.loc 1 206 31 discriminator 3 view .LVU131
	addq	$4, %rax	#, ivtmp.66
# operation.c:206: 	for(i = ak->min; i<ak->max; i++){
	.loc 1 206 2 discriminator 3 view .LVU132
	cmpl	%ecx, 4(%rbx)	# i, MEM[(struct  *)args_24(D)].max
	jg	.L22	#,
.L21:
	.loc 1 211 2 is_stmt 1 view .LVU133
	movq	%rbx, %rdi	# args,
	call	pthread_exit@PLT	#
.LVL73:
	.loc 1 211 2 is_stmt 0 view .LVU134
	.cfi_endproc
.LFE36:
	.size	execute_task, .-execute_task
	.globl	error_message
	.type	error_message, @function
error_message:
.LVL74:
.LFB40:
	.loc 1 255 47 is_stmt 1 view -0
	.cfi_startproc
	.loc 1 255 47 is_stmt 0 view .LVU136
	pushq	%rbp	#
	.cfi_def_cfa_offset 16
	.cfi_offset 6, -16
	pushq	%rbx	#
	.cfi_def_cfa_offset 24
	.cfi_offset 3, -24
	subq	$8, %rsp	#,
	.cfi_def_cfa_offset 32
	movq	%rdi, %rbp	# source, source
	movq	%rsi, %rbx	# message, message
	movq	24(%rsp), %rsi	#,
.LVL75:
	.loc 1 255 47 view .LVU137
	leaq	error_message(%rip), %rdi	#,
.LVL76:
	.loc 1 255 47 view .LVU138
	call	__cyg_profile_func_enter@PLT	#
.LVL77:
	.loc 1 256 2 is_stmt 1 view .LVU139
	movq	%rbp, %rdi	# source,
	call	puts@PLT	#
.LVL78:
	.loc 1 257 2 view .LVU140
	movq	%rbx, %rdi	# message,
	call	perror@PLT	#
.LVL79:
	movq	24(%rsp), %rsi	#,
	leaq	error_message(%rip), %rdi	#,
	call	__cyg_profile_func_exit@PLT	#
.LVL80:
# operation.c:258: }
	.loc 1 258 1 is_stmt 0 view .LVU141
	addq	$8, %rsp	#,
	.cfi_def_cfa_offset 24
	popq	%rbx	#
	.cfi_def_cfa_offset 16
.LVL81:
	.loc 1 258 1 view .LVU142
	popq	%rbp	#
	.cfi_def_cfa_offset 8
.LVL82:
	.loc 1 258 1 view .LVU143
	ret	
	.cfi_endproc
.LFE40:
	.size	error_message, .-error_message
	.section	.rodata.str1.8
	.align 8
.LC4:
	.string	"L'allocation de la memoire a echoue"
	.section	.rodata.str1.1,"aMS",@progbits,1
.LC5:
	.string	"allouer_espace_memoire"
	.text
	.globl	allouer_espace_memoire
	.type	allouer_espace_memoire, @function
allouer_espace_memoire:
.LFB28:
	.loc 1 110 30 is_stmt 1 view -0
	.cfi_startproc
	pushq	%rbx	#
	.cfi_def_cfa_offset 16
	.cfi_offset 3, -16
	movq	8(%rsp), %rsi	#,
	leaq	allouer_espace_memoire(%rip), %rdi	#,
	call	__cyg_profile_func_enter@PLT	#
.LVL83:
	.loc 1 111 2 view .LVU145
# operation.c:111: 	int *tableau = (int*) calloc(TABLE_SIZE, sizeof(int));
	.loc 1 111 24 is_stmt 0 view .LVU146
	movl	$4, %esi	#,
	movl	$1000000, %edi	#,
	call	calloc@PLT	#
.LVL84:
	.loc 1 112 5 is_stmt 1 view .LVU147
# operation.c:112:     if(tableau == NULL)
	.loc 1 112 7 is_stmt 0 view .LVU148
	testq	%rax, %rax	# <retval>
	je	.L30	#,
	movq	%rax, %rbx	#, <retval>
	.loc 1 117 5 is_stmt 1 view .LVU149
	movq	8(%rsp), %rsi	#,
	leaq	allouer_espace_memoire(%rip), %rdi	#,
	call	__cyg_profile_func_exit@PLT	#
.LVL85:
# operation.c:118: }
	.loc 1 118 1 is_stmt 0 view .LVU150
	movq	%rbx, %rax	# <retval>,
	popq	%rbx	#
	.cfi_remember_state
	.cfi_def_cfa_offset 8
.LVL86:
	.loc 1 118 1 view .LVU151
	ret	
.L30:
	.cfi_restore_state
	.loc 1 114 9 is_stmt 1 view .LVU152
	leaq	.LC4(%rip), %rsi	#,
	leaq	.LC5(%rip), %rdi	#,
	call	error_message	#
.LVL87:
	.loc 1 115 9 view .LVU153
	movl	$1, %edi	#,
	call	exit@PLT	#
.LVL88:
	.cfi_endproc
.LFE28:
	.size	allouer_espace_memoire, .-allouer_espace_memoire
	.globl	initialiserTableau
	.type	initialiserTableau, @function
initialiserTableau:
.LFB23:
	.loc 1 5 26 view -0
	.cfi_startproc
	pushq	%r12	#
	.cfi_def_cfa_offset 16
	.cfi_offset 12, -16
	pushq	%rbp	#
	.cfi_def_cfa_offset 24
	.cfi_offset 6, -24
	pushq	%rbx	#
	.cfi_def_cfa_offset 32
	.cfi_offset 3, -32
	movq	24(%rsp), %rsi	#,
	leaq	initialiserTableau(%rip), %rdi	#,
	call	__cyg_profile_func_enter@PLT	#
.LVL89:
	.loc 1 7 2 view .LVU155
	.loc 1 8 2 view .LVU156
# operation.c:8: 	tableau = allouer_espace_memoire();
	.loc 1 8 12 is_stmt 0 view .LVU157
	movl	$0, %eax	#,
	call	allouer_espace_memoire	#
.LVL90:
	movq	%rax, %r12	#, <retval>
.LVL91:
	.loc 1 9 2 is_stmt 1 view .LVU158
	.loc 1 9 2 is_stmt 0 view .LVU159
	movq	%rax, %rbx	# <retval>, ivtmp.73
	leaq	4000000(%rax), %rbp	#, _26
.LVL92:
.L32:
	.loc 1 10 3 is_stmt 1 discriminator 3 view .LVU160
# operation.c:10: 		*(tableau + i) = generate_random_value();
	.loc 1 10 20 is_stmt 0 discriminator 3 view .LVU161
	movl	$0, %eax	#,
	call	generate_random_value	#
.LVL93:
# operation.c:10: 		*(tableau + i) = generate_random_value();
	.loc 1 10 18 discriminator 3 view .LVU162
	movl	%eax, (%rbx)	# _4, MEM[base: _24, offset: 0B]
	.loc 1 10 18 discriminator 3 view .LVU163
	addq	$4, %rbx	#, ivtmp.73
# operation.c:9: 	for(i=0; i<TABLE_SIZE; i++){
	.loc 1 9 2 discriminator 3 view .LVU164
	cmpq	%rbp, %rbx	# _26, ivtmp.73
	jne	.L32	#,
	.loc 1 13 2 is_stmt 1 view .LVU165
	movq	24(%rsp), %rsi	#,
	leaq	initialiserTableau(%rip), %rdi	#,
	call	__cyg_profile_func_exit@PLT	#
.LVL94:
# operation.c:14: }
	.loc 1 14 1 is_stmt 0 view .LVU166
	movq	%r12, %rax	# <retval>,
	popq	%rbx	#
	.cfi_def_cfa_offset 24
	popq	%rbp	#
	.cfi_def_cfa_offset 16
	popq	%r12	#
	.cfi_def_cfa_offset 8
.LVL95:
	.loc 1 14 1 view .LVU167
	ret	
	.cfi_endproc
.LFE23:
	.size	initialiserTableau, .-initialiserTableau
	.section	.rodata.str1.8
	.align 8
.LC6:
	.string	"allouer_espace_memoire_avec_param"
	.text
	.globl	allouer_espace_memoire_avec_param
	.type	allouer_espace_memoire_avec_param, @function
allouer_espace_memoire_avec_param:
.LVL96:
.LFB29:
	.loc 1 122 48 is_stmt 1 view -0
	.cfi_startproc
	.loc 1 122 48 is_stmt 0 view .LVU169
	pushq	%rbx	#
	.cfi_def_cfa_offset 16
	.cfi_offset 3, -16
	movl	%edi, %ebx	# nbr, nbr
	movq	8(%rsp), %rsi	#,
	leaq	allouer_espace_memoire_avec_param(%rip), %rdi	#,
.LVL97:
	.loc 1 122 48 view .LVU170
	call	__cyg_profile_func_enter@PLT	#
.LVL98:
	.loc 1 123 2 is_stmt 1 view .LVU171
# operation.c:123: 	int *tableau = (int*) calloc(nbr, sizeof(int));
	.loc 1 123 24 is_stmt 0 view .LVU172
	movslq	%ebx, %rdi	# nbr, nbr
	movl	$4, %esi	#,
	call	calloc@PLT	#
.LVL99:
	.loc 1 124 5 is_stmt 1 view .LVU173
# operation.c:124:     if(tableau == NULL)
	.loc 1 124 7 is_stmt 0 view .LVU174
	testq	%rax, %rax	# <retval>
	je	.L38	#,
	movq	%rax, %rbx	#, <retval>
.LVL100:
	.loc 1 129 5 is_stmt 1 view .LVU175
	movq	8(%rsp), %rsi	#,
	leaq	allouer_espace_memoire_avec_param(%rip), %rdi	#,
	call	__cyg_profile_func_exit@PLT	#
.LVL101:
# operation.c:130: }
	.loc 1 130 1 is_stmt 0 view .LVU176
	movq	%rbx, %rax	# <retval>,
	popq	%rbx	#
	.cfi_remember_state
	.cfi_def_cfa_offset 8
.LVL102:
	.loc 1 130 1 view .LVU177
	ret	
.LVL103:
.L38:
	.cfi_restore_state
	.loc 1 126 9 is_stmt 1 view .LVU178
	leaq	.LC4(%rip), %rsi	#,
	leaq	.LC6(%rip), %rdi	#,
	call	error_message	#
.LVL104:
	.loc 1 127 9 view .LVU179
	movl	$1, %edi	#,
	call	exit@PLT	#
.LVL105:
	.cfi_endproc
.LFE29:
	.size	allouer_espace_memoire_avec_param, .-allouer_espace_memoire_avec_param
	.globl	allouer_espace_memoire_struct_operation
	.type	allouer_espace_memoire_struct_operation, @function
allouer_espace_memoire_struct_operation:
.LVL106:
.LFB30:
	.loc 1 134 59 view -0
	.cfi_startproc
	.loc 1 134 59 is_stmt 0 view .LVU181
	pushq	%rbx	#
	.cfi_def_cfa_offset 16
	.cfi_offset 3, -16
	movl	%edi, %ebx	# nbr, nbr
	movq	8(%rsp), %rsi	#,
	leaq	allouer_espace_memoire_struct_operation(%rip), %rdi	#,
.LVL107:
	.loc 1 134 59 view .LVU182
	call	__cyg_profile_func_enter@PLT	#
.LVL108:
	.loc 1 135 2 is_stmt 1 view .LVU183
# operation.c:135: 	Operation tableau = (Operation) calloc(nbr, sizeof(operation));
	.loc 1 135 34 is_stmt 0 view .LVU184
	movslq	%ebx, %rdi	# nbr, nbr
	movl	$40, %esi	#,
	call	calloc@PLT	#
.LVL109:
	.loc 1 136 5 is_stmt 1 view .LVU185
# operation.c:136:     if(tableau == NULL)
	.loc 1 136 7 is_stmt 0 view .LVU186
	testq	%rax, %rax	# <retval>
	je	.L42	#,
	movq	%rax, %rbx	#, <retval>
.LVL110:
	.loc 1 141 5 is_stmt 1 view .LVU187
	movq	8(%rsp), %rsi	#,
	leaq	allouer_espace_memoire_struct_operation(%rip), %rdi	#,
	call	__cyg_profile_func_exit@PLT	#
.LVL111:
# operation.c:142: }
	.loc 1 142 1 is_stmt 0 view .LVU188
	movq	%rbx, %rax	# <retval>,
	popq	%rbx	#
	.cfi_remember_state
	.cfi_def_cfa_offset 8
.LVL112:
	.loc 1 142 1 view .LVU189
	ret	
.LVL113:
.L42:
	.cfi_restore_state
	.loc 1 138 9 is_stmt 1 view .LVU190
	leaq	.LC4(%rip), %rsi	#,
	leaq	.LC6(%rip), %rdi	#,
	call	error_message	#
.LVL114:
	.loc 1 139 9 view .LVU191
	movl	$1, %edi	#,
	call	exit@PLT	#
.LVL115:
	.cfi_endproc
.LFE30:
	.size	allouer_espace_memoire_struct_operation, .-allouer_espace_memoire_struct_operation
	.globl	init_operation
	.type	init_operation, @function
init_operation:
.LVL116:
.LFB39:
	.loc 1 241 70 view -0
	.cfi_startproc
	.loc 1 241 70 is_stmt 0 view .LVU193
	pushq	%r15	#
	.cfi_def_cfa_offset 16
	.cfi_offset 15, -16
	pushq	%r14	#
	.cfi_def_cfa_offset 24
	.cfi_offset 14, -24
	pushq	%r13	#
	.cfi_def_cfa_offset 32
	.cfi_offset 13, -32
	pushq	%r12	#
	.cfi_def_cfa_offset 40
	.cfi_offset 12, -40
	pushq	%rbp	#
	.cfi_def_cfa_offset 48
	.cfi_offset 6, -48
	pushq	%rbx	#
	.cfi_def_cfa_offset 56
	.cfi_offset 3, -56
	subq	$8, %rsp	#,
	.cfi_def_cfa_offset 64
	movl	%edi, %r15d	# min, min
	movl	%esi, %r14d	# max, max
	movq	%rdx, %r13	# t1, t1
	movq	%rcx, %r12	# t2, t2
	movq	%r8, %rbp	# t3, t3
	movq	56(%rsp), %rsi	#,
.LVL117:
	.loc 1 241 70 view .LVU194
	leaq	init_operation(%rip), %rdi	#,
.LVL118:
	.loc 1 241 70 view .LVU195
	call	__cyg_profile_func_enter@PLT	#
.LVL119:
	.loc 1 242 2 is_stmt 1 view .LVU196
# operation.c:242: 	Operation op = allouer_espace_memoire_struct_operation(1);
	.loc 1 242 17 is_stmt 0 view .LVU197
	movl	$1, %edi	#,
	call	allouer_espace_memoire_struct_operation	#
.LVL120:
	movq	%rax, %rbx	#, tmp96
.LVL121:
	.loc 1 243 2 is_stmt 1 view .LVU198
# operation.c:243: 	op->min = min;
	.loc 1 243 10 is_stmt 0 view .LVU199
	movl	%r15d, (%rax)	# min, op_6->min
	.loc 1 244 2 is_stmt 1 view .LVU200
# operation.c:244: 	op->max = max;
	.loc 1 244 10 is_stmt 0 view .LVU201
	movl	%r14d, 4(%rax)	# max, op_6->max
	.loc 1 245 2 is_stmt 1 view .LVU202
# operation.c:245: 	op->t1 = t1;
	.loc 1 245 9 is_stmt 0 view .LVU203
	movq	%r13, 8(%rax)	# t1, op_6->t1
	.loc 1 246 2 is_stmt 1 view .LVU204
# operation.c:246: 	op->t2 = t2;
	.loc 1 246 9 is_stmt 0 view .LVU205
	movq	%r12, 16(%rax)	# t2, op_6->t2
	.loc 1 247 2 is_stmt 1 view .LVU206
# operation.c:247: 	op->t3 = t3;
	.loc 1 247 9 is_stmt 0 view .LVU207
	movq	%rbp, 24(%rax)	# t3, op_6->t3
	.loc 1 249 2 is_stmt 1 view .LVU208
	movq	56(%rsp), %rsi	#,
	leaq	init_operation(%rip), %rdi	#,
	call	__cyg_profile_func_exit@PLT	#
.LVL122:
# operation.c:250: }
	.loc 1 250 1 is_stmt 0 view .LVU209
	movq	%rbx, %rax	# tmp96,
	addq	$8, %rsp	#,
	.cfi_def_cfa_offset 56
	popq	%rbx	#
	.cfi_def_cfa_offset 48
.LVL123:
	.loc 1 250 1 view .LVU210
	popq	%rbp	#
	.cfi_def_cfa_offset 40
.LVL124:
	.loc 1 250 1 view .LVU211
	popq	%r12	#
	.cfi_def_cfa_offset 32
.LVL125:
	.loc 1 250 1 view .LVU212
	popq	%r13	#
	.cfi_def_cfa_offset 24
.LVL126:
	.loc 1 250 1 view .LVU213
	popq	%r14	#
	.cfi_def_cfa_offset 16
.LVL127:
	.loc 1 250 1 view .LVU214
	popq	%r15	#
	.cfi_def_cfa_offset 8
.LVL128:
	.loc 1 250 1 view .LVU215
	ret	
	.cfi_endproc
.LFE39:
	.size	init_operation, .-init_operation
	.section	.rodata.str1.1
.LC7:
	.string	"allouer_espace_memoire_thread"
	.text
	.globl	allouer_espace_memoire_thread
	.type	allouer_espace_memoire_thread, @function
allouer_espace_memoire_thread:
.LVL129:
.LFB31:
	.loc 1 147 56 is_stmt 1 view -0
	.cfi_startproc
	.loc 1 147 56 is_stmt 0 view .LVU217
	pushq	%rbx	#
	.cfi_def_cfa_offset 16
	.cfi_offset 3, -16
	movl	%edi, %ebx	# nb_thread, nb_thread
	movq	8(%rsp), %rsi	#,
	leaq	allouer_espace_memoire_thread(%rip), %rdi	#,
.LVL130:
	.loc 1 147 56 view .LVU218
	call	__cyg_profile_func_enter@PLT	#
.LVL131:
	.loc 1 148 2 is_stmt 1 view .LVU219
# operation.c:148: 	pthread_t *tableau = (pthread_t*) calloc(nb_thread, sizeof(pthread_t));
	.loc 1 148 36 is_stmt 0 view .LVU220
	movslq	%ebx, %rdi	# nb_thread, nb_thread
	movl	$8, %esi	#,
	call	calloc@PLT	#
.LVL132:
	.loc 1 149 5 is_stmt 1 view .LVU221
# operation.c:149:     if(tableau == NULL)
	.loc 1 149 7 is_stmt 0 view .LVU222
	testq	%rax, %rax	# <retval>
	je	.L48	#,
	movq	%rax, %rbx	#, <retval>
.LVL133:
	.loc 1 154 5 is_stmt 1 view .LVU223
	movq	8(%rsp), %rsi	#,
	leaq	allouer_espace_memoire_thread(%rip), %rdi	#,
	call	__cyg_profile_func_exit@PLT	#
.LVL134:
# operation.c:155: }
	.loc 1 155 1 is_stmt 0 view .LVU224
	movq	%rbx, %rax	# <retval>,
	popq	%rbx	#
	.cfi_remember_state
	.cfi_def_cfa_offset 8
.LVL135:
	.loc 1 155 1 view .LVU225
	ret	
.LVL136:
.L48:
	.cfi_restore_state
	.loc 1 151 9 is_stmt 1 view .LVU226
	leaq	.LC4(%rip), %rsi	#,
	leaq	.LC7(%rip), %rdi	#,
	call	error_message	#
.LVL137:
	.loc 1 152 9 view .LVU227
	movl	$1, %edi	#,
	call	exit@PLT	#
.LVL138:
	.cfi_endproc
.LFE31:
	.size	allouer_espace_memoire_thread, .-allouer_espace_memoire_thread
	.section	.rodata.str1.8
	.align 8
.LC8:
	.string	"Erreur lors de la creation du thread"
	.section	.rodata.str1.1
.LC9:
	.string	"pthread_create"
	.text
	.globl	create_task
	.type	create_task, @function
create_task:
.LVL139:
.LFB37:
	.loc 1 216 79 view -0
	.cfi_startproc
	.loc 1 216 79 is_stmt 0 view .LVU229
	pushq	%r15	#
	.cfi_def_cfa_offset 16
	.cfi_offset 15, -16
	pushq	%r14	#
	.cfi_def_cfa_offset 24
	.cfi_offset 14, -24
	pushq	%r13	#
	.cfi_def_cfa_offset 32
	.cfi_offset 13, -32
	pushq	%r12	#
	.cfi_def_cfa_offset 40
	.cfi_offset 12, -40
	pushq	%rbp	#
	.cfi_def_cfa_offset 48
	.cfi_offset 6, -48
	pushq	%rbx	#
	.cfi_def_cfa_offset 56
	.cfi_offset 3, -56
	subq	$8, %rsp	#,
	.cfi_def_cfa_offset 64
	movq	%rdi, %rbx	# task, task
	movl	%esi, %ebp	# min, min
	movl	%edx, %r12d	# max, max
	movq	%rcx, %r13	# t1, t1
	movq	%r8, %r14	# t2, t2
	movq	%r9, %r15	# t3, t3
	movq	56(%rsp), %rsi	#,
.LVL140:
	.loc 1 216 79 view .LVU230
	leaq	create_task(%rip), %rdi	#,
.LVL141:
	.loc 1 216 79 view .LVU231
	call	__cyg_profile_func_enter@PLT	#
.LVL142:
	.loc 1 217 2 is_stmt 1 view .LVU232
# operation.c:217: 	Operation op = init_operation(min,max,t1,t2,t3);
	.loc 1 217 17 is_stmt 0 view .LVU233
	movq	%r15, %r8	# t3,
	movq	%r14, %rcx	# t2,
	movq	%r13, %rdx	# t1,
	movl	%r12d, %esi	# max,
	movl	%ebp, %edi	# min,
	call	init_operation	#
.LVL143:
	.loc 1 220 2 is_stmt 1 view .LVU234
# operation.c:220: 	if(pthread_create(task, NULL, execute_task,op)){
	.loc 1 220 5 is_stmt 0 view .LVU235
	movq	%rax, %rcx	# op,
	leaq	execute_task(%rip), %rdx	#,
	movl	$0, %esi	#,
	movq	%rbx, %rdi	# task,
	call	pthread_create@PLT	#
.LVL144:
# operation.c:220: 	if(pthread_create(task, NULL, execute_task,op)){
	.loc 1 220 4 view .LVU236
	testl	%eax, %eax	# _1
	jne	.L53	#,
	movq	56(%rsp), %rsi	#,
	leaq	create_task(%rip), %rdi	#,
	call	__cyg_profile_func_exit@PLT	#
.LVL145:
.L49:
# operation.c:224: }
	.loc 1 224 1 view .LVU237
	addq	$8, %rsp	#,
	.cfi_remember_state
	.cfi_def_cfa_offset 56
	popq	%rbx	#
	.cfi_def_cfa_offset 48
.LVL146:
	.loc 1 224 1 view .LVU238
	popq	%rbp	#
	.cfi_def_cfa_offset 40
.LVL147:
	.loc 1 224 1 view .LVU239
	popq	%r12	#
	.cfi_def_cfa_offset 32
.LVL148:
	.loc 1 224 1 view .LVU240
	popq	%r13	#
	.cfi_def_cfa_offset 24
.LVL149:
	.loc 1 224 1 view .LVU241
	popq	%r14	#
	.cfi_def_cfa_offset 16
.LVL150:
	.loc 1 224 1 view .LVU242
	popq	%r15	#
	.cfi_def_cfa_offset 8
.LVL151:
	.loc 1 224 1 view .LVU243
	ret	
.LVL152:
.L53:
	.cfi_restore_state
	.loc 1 221 3 is_stmt 1 view .LVU244
	leaq	.LC8(%rip), %rsi	#,
	leaq	.LC9(%rip), %rdi	#,
	call	error_message	#
.LVL153:
	.loc 1 222 3 view .LVU245
	movq	56(%rsp), %rsi	#,
	leaq	create_task(%rip), %rdi	#,
	call	__cyg_profile_func_exit@PLT	#
.LVL154:
	jmp	.L49	#
	.cfi_endproc
.LFE37:
	.size	create_task, .-create_task
	.section	.rodata.str1.8
	.align 8
.LC10:
	.string	"Erreur lors de l'attente de la fin d'execution d'un thread"
	.section	.rodata.str1.1
.LC11:
	.string	"pthread_join"
	.text
	.globl	wait_task
	.type	wait_task, @function
wait_task:
.LVL155:
.LFB38:
	.loc 1 228 30 view -0
	.cfi_startproc
	.loc 1 228 30 is_stmt 0 view .LVU247
	pushq	%rbx	#
	.cfi_def_cfa_offset 16
	.cfi_offset 3, -16
	subq	$16, %rsp	#,
	.cfi_def_cfa_offset 32
	movq	%rdi, %rbx	# task, task
	movq	24(%rsp), %rsi	#,
	leaq	wait_task(%rip), %rdi	#,
.LVL156:
	.loc 1 228 30 view .LVU248
	call	__cyg_profile_func_enter@PLT	#
.LVL157:
	.loc 1 229 2 is_stmt 1 view .LVU249
# operation.c:229: 	Operation op = allouer_espace_memoire_struct_operation(1);
	.loc 1 229 17 is_stmt 0 view .LVU250
	movl	$1, %edi	#,
	call	allouer_espace_memoire_struct_operation	#
.LVL158:
# operation.c:229: 	Operation op = allouer_espace_memoire_struct_operation(1);
	.loc 1 229 12 view .LVU251
	movq	%rax, 8(%rsp)	# tmp95, op
	.loc 1 230 2 is_stmt 1 view .LVU252
# operation.c:230: 	if(pthread_join(task,(void **)&op)){
	.loc 1 230 5 is_stmt 0 view .LVU253
	leaq	8(%rsp), %rsi	#, tmp96
	movq	%rbx, %rdi	# task,
	call	pthread_join@PLT	#
.LVL159:
# operation.c:230: 	if(pthread_join(task,(void **)&op)){
	.loc 1 230 4 view .LVU254
	testl	%eax, %eax	# _2
	jne	.L58	#,
	.loc 1 234 2 is_stmt 1 view .LVU255
# operation.c:234: 	int somme = op->somme;
	.loc 1 234 16 is_stmt 0 view .LVU256
	movq	8(%rsp), %rdi	# op, op.31_3
# operation.c:234: 	int somme = op->somme;
	.loc 1 234 6 view .LVU257
	movl	32(%rdi), %ebx	# op.31_3->somme, <retval>
.LVL160:
	.loc 1 235 2 is_stmt 1 view .LVU258
	call	free@PLT	#
.LVL161:
	.loc 1 236 2 view .LVU259
.L56:
	.loc 1 236 2 is_stmt 0 view .LVU260
	movq	24(%rsp), %rsi	#,
	leaq	wait_task(%rip), %rdi	#,
	call	__cyg_profile_func_exit@PLT	#
.LVL162:
# operation.c:237: }
	.loc 1 237 1 view .LVU261
	movl	%ebx, %eax	# <retval>,
	addq	$16, %rsp	#,
	.cfi_remember_state
	.cfi_def_cfa_offset 16
	popq	%rbx	#
	.cfi_def_cfa_offset 8
	ret	
.LVL163:
.L58:
	.cfi_restore_state
	.loc 1 231 3 is_stmt 1 view .LVU262
	leaq	.LC10(%rip), %rsi	#,
	leaq	.LC11(%rip), %rdi	#,
	call	error_message	#
.LVL164:
	.loc 1 232 3 view .LVU263
# operation.c:232: 		return -1;
	.loc 1 232 10 is_stmt 0 view .LVU264
	movl	$-1, %ebx	#, <retval>
.LVL165:
	.loc 1 232 10 view .LVU265
	jmp	.L56	#
	.cfi_endproc
.LFE38:
	.size	wait_task, .-wait_task
	.globl	calculer_t3_posix
	.type	calculer_t3_posix, @function
calculer_t3_posix:
.LVL166:
.LFB25:
	.loc 1 41 64 is_stmt 1 view -0
	.cfi_startproc
	.loc 1 41 64 is_stmt 0 view .LVU267
	pushq	%r15	#
	.cfi_def_cfa_offset 16
	.cfi_offset 15, -16
	pushq	%r14	#
	.cfi_def_cfa_offset 24
	.cfi_offset 14, -24
	pushq	%r13	#
	.cfi_def_cfa_offset 32
	.cfi_offset 13, -32
	pushq	%r12	#
	.cfi_def_cfa_offset 40
	.cfi_offset 12, -40
	pushq	%rbp	#
	.cfi_def_cfa_offset 48
	.cfi_offset 6, -48
	pushq	%rbx	#
	.cfi_def_cfa_offset 56
	.cfi_offset 3, -56
	subq	$72, %rsp	#,
	.cfi_def_cfa_offset 128
	movq	%rdi, %rbp	# t1, t1
	movq	%rdi, 24(%rsp)	# t1, %sfp
	movq	%rsi, %r15	# t2, t2
	movq	%rsi, 32(%rsp)	# t2, %sfp
	movq	%rdx, %r14	# t3, t3
	movl	%ecx, %r12d	# nb_thread, nb_thread
	movq	120(%rsp), %rsi	#,
.LVL167:
	.loc 1 41 64 view .LVU268
	leaq	calculer_t3_posix(%rip), %rdi	#,
.LVL168:
	.loc 1 41 64 view .LVU269
	call	__cyg_profile_func_enter@PLT	#
.LVL169:
	.loc 1 42 2 is_stmt 1 view .LVU270
# operation.c:42: 	clock_t debut = chrono();
	.loc 1 42 18 is_stmt 0 view .LVU271
	movl	$0, %eax	#,
	call	chrono	#
.LVL170:
	movq	%rax, 8(%rsp)	#, %sfp
.LVL171:
	.loc 1 43 2 is_stmt 1 view .LVU272
	.loc 1 44 2 view .LVU273
	.loc 1 45 2 view .LVU274
	.loc 1 46 2 view .LVU275
	.loc 1 47 2 view .LVU276
# operation.c:47: 	pthread_t* threads= allouer_espace_memoire_thread(nb_thread);
	.loc 1 47 22 is_stmt 0 view .LVU277
	movl	%r12d, %edi	# nb_thread,
	call	allouer_espace_memoire_thread	#
.LVL172:
	.loc 1 47 22 view .LVU278
	movq	%rax, %r13	#, threads
.LVL173:
	.loc 1 48 2 is_stmt 1 view .LVU279
	.loc 1 51 2 view .LVU280
# operation.c:51: 	int nbr_element = TABLE_SIZE/nb_thread;
	.loc 1 51 6 is_stmt 0 view .LVU281
	movl	$1000000, %eax	#, tmp124
.LVL174:
	.loc 1 51 6 view .LVU282
	cltd
	idivl	%r12d	# nb_thread
	movl	%eax, %ebx	# tmp124, tmp122
.LVL175:
	.loc 1 52 2 is_stmt 1 view .LVU283
# operation.c:52: 	int has_restant = ((nbr_element * nb_thread )!= TABLE_SIZE);
	.loc 1 52 34 is_stmt 0 view .LVU284
	movl	%r12d, %eax	# nb_thread, _1
.LVL176:
	.loc 1 52 34 view .LVU285
	imull	%ebx, %eax	# tmp122, _1
	movl	%eax, 20(%rsp)	# _1, %sfp
.LVL177:
	.loc 1 53 2 is_stmt 1 view .LVU286
	.loc 1 56 2 view .LVU287
# operation.c:56: 	if(has_restant){
	.loc 1 56 4 is_stmt 0 view .LVU288
	cmpl	$1000000, %eax	#, _1
	jne	.L76	#,
# operation.c:43: 	int somme = 0, i =0;
	.loc 1 43 6 view .LVU289
	movl	$0, %ebp	#, somme
.LVL178:
# operation.c:60: 	for(i=0 ; i<nb_thread; i++){
	.loc 1 60 2 view .LVU290
	testl	%r12d, %r12d	# nb_thread
	jle	.L68	#,
.LVL179:
.L69:
	.loc 1 60 2 view .LVU291
	movq	%r13, %rbp	# threads, ivtmp.82
	movl	%ebx, 16(%rsp)	# tmp122, %sfp
	leal	-1(%r12), %eax	#, tmp127
	leaq	8(%r13,%rax,8), %r15	#, _76
.LVL180:
# operation.c:41: void calculer_t3_posix(int* t1,int* t2, int* t3, int nb_thread){
	.loc 1 41 64 view .LVU292
	movl	$0, %ebx	#, ivtmp.83
.LVL181:
	.loc 1 41 64 view .LVU293
	movq	%r13, 40(%rsp)	# threads, %sfp
	movq	32(%rsp), %r13	# %sfp, t2
.LVL182:
	.loc 1 41 64 view .LVU294
	movl	%r12d, 32(%rsp)	# nb_thread, %sfp
.LVL183:
	.loc 1 41 64 view .LVU295
	movq	24(%rsp), %r12	# %sfp, t1
.LVL184:
.L62:
	.loc 1 61 3 is_stmt 1 discriminator 3 view .LVU296
# operation.c:61: 		temp = i * nbr_element;
	.loc 1 61 8 is_stmt 0 discriminator 3 view .LVU297
	movl	%ebx, %esi	# ivtmp.83, temp
.LVL185:
	.loc 1 62 3 is_stmt 1 discriminator 3 view .LVU298
	addl	16(%rsp), %ebx	# %sfp, ivtmp.83
.LVL186:
	.loc 1 62 3 is_stmt 0 discriminator 3 view .LVU299
	movq	%r14, %r9	# t3,
	movq	%r13, %r8	# t2,
	movq	%r12, %rcx	# t1,
	movl	%ebx, %edx	# ivtmp.83,
	movq	%rbp, %rdi	# ivtmp.82,
	call	create_task	#
.LVL187:
	.loc 1 62 3 discriminator 3 view .LVU300
	addq	$8, %rbp	#, ivtmp.82
# operation.c:60: 	for(i=0 ; i<nb_thread; i++){
	.loc 1 60 2 discriminator 3 view .LVU301
	cmpq	%r15, %rbp	# _76, ivtmp.82
	jne	.L62	#,
	movq	40(%rsp), %r13	# %sfp, threads
	movl	32(%rsp), %r12d	# %sfp, nb_thread
	.loc 1 66 2 is_stmt 1 view .LVU302
# operation.c:43: 	int somme = 0, i =0;
	.loc 1 43 6 is_stmt 0 view .LVU303
	movl	$0, %ebp	#, somme
# operation.c:66: 	if(has_restant){
	.loc 1 66 4 view .LVU304
	cmpl	$1000000, 20(%rsp)	#, %sfp
	jne	.L77	#,
.LVL188:
.L66:
# operation.c:43: 	int somme = 0, i =0;
	.loc 1 43 6 discriminator 3 view .LVU305
	movl	$0, %ebx	#, ivtmp.75
.L64:
.LVL189:
	.loc 1 71 3 is_stmt 1 discriminator 3 view .LVU306
# operation.c:71: 		somme += wait_task(threads[i]);
	.loc 1 71 12 is_stmt 0 discriminator 3 view .LVU307
	movq	0(%r13,%rbx,8), %rdi	# MEM[base: threads_30, index: ivtmp.75_14, step: 8, offset: 0B], MEM[base: threads_30, index: ivtmp.75_14, step: 8, offset: 0B]
	call	wait_task	#
.LVL190:
# operation.c:71: 		somme += wait_task(threads[i]);
	.loc 1 71 9 discriminator 3 view .LVU308
	addl	%eax, %ebp	# _42, somme
.LVL191:
	.loc 1 71 9 discriminator 3 view .LVU309
	addq	$1, %rbx	#, ivtmp.75
.LVL192:
# operation.c:70: 	for(i=0 ; i<nb_thread; i++){
	.loc 1 70 2 discriminator 3 view .LVU310
	cmpl	%ebx, %r12d	# ivtmp.75, nb_thread
	jg	.L64	#,
.LVL193:
.L68:
	.loc 1 73 2 is_stmt 1 view .LVU311
	.loc 1 74 2 view .LVU312
# operation.c:74: 	fin = chrono();
	.loc 1 74 8 is_stmt 0 view .LVU313
	movl	$0, %eax	#,
	call	chrono	#
.LVL194:
	.loc 1 75 2 is_stmt 1 view .LVU314
# operation.c:75: 	time_elapse = calculer_temps_operation(debut, fin);
	.loc 1 75 16 is_stmt 0 view .LVU315
	movq	%rax, %rsi	# fin,
	movq	8(%rsp), %rdi	# %sfp,
	call	calculer_temps_operation	#
.LVL195:
	.loc 1 75 16 view .LVU316
	movapd	%xmm0, %xmm1	#, time_elapse
.LVL196:
	.loc 1 76 2 is_stmt 1 view .LVU317
# operation.c:73: 	moyenne =(float) somme / TABLE_SIZE;
	.loc 1 73 11 is_stmt 0 view .LVU318
	pxor	%xmm2, %xmm2	# tmp131
	cvtsi2ss	%ebp, %xmm2	# somme, tmp131
# operation.c:73: 	moyenne =(float) somme / TABLE_SIZE;
	.loc 1 73 10 view .LVU319
	divss	.LC3(%rip), %xmm2	#, tmp131
	movaps	%xmm2, %xmm0	# tmp131, moyenne
.LVL197:
# operation.c:76: 	afficherResultat(somme, moyenne, time_elapse);
	.loc 1 76 2 view .LVU320
	movl	%ebp, %edi	# somme,
	call	afficherResultat	#
.LVL198:
	.loc 1 77 2 is_stmt 1 view .LVU321
	movq	%r13, %rdi	# threads,
	call	free@PLT	#
.LVL199:
	movq	120(%rsp), %rsi	#,
	leaq	calculer_t3_posix(%rip), %rdi	#,
	call	__cyg_profile_func_exit@PLT	#
.LVL200:
# operation.c:78: }
	.loc 1 78 1 is_stmt 0 view .LVU322
	addq	$72, %rsp	#,
	.cfi_remember_state
	.cfi_def_cfa_offset 56
	popq	%rbx	#
	.cfi_def_cfa_offset 48
	popq	%rbp	#
	.cfi_def_cfa_offset 40
.LVL201:
	.loc 1 78 1 view .LVU323
	popq	%r12	#
	.cfi_def_cfa_offset 32
	popq	%r13	#
	.cfi_def_cfa_offset 24
	popq	%r14	#
	.cfi_def_cfa_offset 16
.LVL202:
	.loc 1 78 1 view .LVU324
	popq	%r15	#
	.cfi_def_cfa_offset 8
	ret	
.LVL203:
.L76:
	.cfi_restore_state
	.loc 1 57 3 is_stmt 1 view .LVU325
	leaq	56(%rsp), %rdi	#, tmp125
	movq	%r14, %r9	# t3,
	movq	%r15, %r8	# t2,
	movq	%rbp, %rcx	# t1,
	movl	$1000000, %edx	#,
	movl	%eax, %esi	# _1,
	call	create_task	#
.LVL204:
# operation.c:60: 	for(i=0 ; i<nb_thread; i++){
	.loc 1 60 2 is_stmt 0 view .LVU326
	testl	%r12d, %r12d	# nb_thread
	jg	.L69	#,
	.loc 1 66 2 is_stmt 1 view .LVU327
# operation.c:66: 	if(has_restant){
	.loc 1 66 4 is_stmt 0 view .LVU328
	cmpl	$1000000, 20(%rsp)	#, %sfp
	je	.L78	#,
	.loc 1 67 3 is_stmt 1 view .LVU329
# operation.c:67: 		somme += wait_task(thread_restant);
	.loc 1 67 12 is_stmt 0 view .LVU330
	movq	56(%rsp), %rdi	# thread_restant,
	call	wait_task	#
.LVL205:
	movl	%eax, %ebp	#, somme
.LVL206:
	.loc 1 67 12 view .LVU331
	jmp	.L68	#
.LVL207:
.L78:
# operation.c:43: 	int somme = 0, i =0;
	.loc 1 43 6 view .LVU332
	movl	$0, %ebp	#, somme
.LVL208:
	.loc 1 43 6 view .LVU333
	jmp	.L68	#
.LVL209:
.L77:
	.loc 1 67 3 is_stmt 1 view .LVU334
# operation.c:67: 		somme += wait_task(thread_restant);
	.loc 1 67 12 is_stmt 0 view .LVU335
	movq	56(%rsp), %rdi	# thread_restant,
	call	wait_task	#
.LVL210:
	movl	%eax, %ebp	#, somme
.LVL211:
	.loc 1 67 12 view .LVU336
	jmp	.L66	#
	.cfi_endproc
.LFE25:
	.size	calculer_t3_posix, .-calculer_t3_posix
	.section	.rodata.str1.1
.LC12:
	.string	"clear"
	.text
	.globl	clearScreen
	.type	clearScreen, @function
clearScreen:
.LFB41:
	.loc 1 263 1 is_stmt 1 view -0
	.cfi_startproc
	subq	$8, %rsp	#,
	.cfi_def_cfa_offset 16
	movq	8(%rsp), %rsi	#,
	leaq	clearScreen(%rip), %rdi	#,
	call	__cyg_profile_func_enter@PLT	#
.LVL212:
	.loc 1 267 6 view .LVU338
	leaq	.LC12(%rip), %rdi	#,
	call	system@PLT	#
.LVL213:
	movq	8(%rsp), %rsi	#,
	leaq	clearScreen(%rip), %rdi	#,
	call	__cyg_profile_func_exit@PLT	#
.LVL214:
# operation.c:271: }
	.loc 1 271 1 is_stmt 0 view .LVU339
	addq	$8, %rsp	#,
	.cfi_def_cfa_offset 8
	ret	
	.cfi_endproc
.LFE41:
	.size	clearScreen, .-clearScreen
	.section	.rodata.cst8,"aM",@progbits,8
	.align 8
.LC0:
	.long	0
	.long	1093567616
	.section	.rodata.cst4,"aM",@progbits,4
	.align 4
.LC3:
	.long	1232348160
	.text
.Letext0:
	.file 2 "/usr/lib/gcc/x86_64-linux-gnu/8/include/stddef.h"
	.file 3 "/usr/include/x86_64-linux-gnu/bits/types.h"
	.file 4 "/usr/include/x86_64-linux-gnu/bits/types/struct_FILE.h"
	.file 5 "/usr/include/x86_64-linux-gnu/bits/types/FILE.h"
	.file 6 "/usr/include/stdio.h"
	.file 7 "/usr/include/x86_64-linux-gnu/bits/sys_errlist.h"
	.file 8 "/usr/include/x86_64-linux-gnu/bits/types/clock_t.h"
	.file 9 "/usr/include/x86_64-linux-gnu/bits/pthreadtypes.h"
	.file 10 "/usr/include/time.h"
	.file 11 "operation.h"
	.file 12 "<built-in>"
	.file 13 "/usr/include/stdlib.h"
	.file 14 "/usr/include/pthread.h"
	.section	.note.GNU-stack,"",@progbits
